target datalayout = "e-m:e-p270:32:32-p271:32:32-p272:64:64-i64:64-i128:128-f80:128-n8:16:32:64-S128"
target triple = "x86_64-pc-linux-gnu"

%struct.PJconsts = type { ptr, ptr, ptr, ptr, ptr, ptr, ptr, ptr, ptr, ptr, ptr, ptr, i32, ptr, ptr, ptr, ptr, ptr, ptr, ptr, ptr, double, double, double, double, double, double, double, double, double, double, double, double, double, double, double, double, double, double, double, double, double, double, i32, i32, i32, i32, i32, i32, i32, i32, i32, i32, i32, ptr, ptr, ptr, ptr, ptr, ptr, double, double, double, double, double, double, double, double, double, double, double, i32, [7 x double], i32, ptr, ptr, double, double, i32, [4 x i8], %"class.std::shared_ptr", i8, double, i8, %"class.std::__cxx11::basic_string", %"class.std::__cxx11::basic_string", %"class.std::__cxx11::basic_string", i8, %"class.std::vector", i32, %"class.std::vector.3", i32, i8, i8, i8, ptr }
%"class.std::shared_ptr" = type { %"class.std::__shared_ptr" }
%"class.std::__shared_ptr" = type { ptr, %"class.std::__shared_count" }
%"class.std::__shared_count" = type { ptr }
%"class.std::__cxx11::basic_string" = type { %"struct.std::__cxx11::basic_string<char>::_Alloc_hider", i64, %union.anon }
%"struct.std::__cxx11::basic_string<char>::_Alloc_hider" = type { ptr }
%union.anon = type { i64, [8 x i8] }
%"class.std::vector" = type { %"struct.std::_Vector_base" }
%"struct.std::_Vector_base" = type { %"struct.std::_Vector_base<osgeo::proj::operation::GridDescription, std::allocator<osgeo::proj::operation::GridDescription>>::_Vector_impl" }
%"struct.std::_Vector_base<osgeo::proj::operation::GridDescription, std::allocator<osgeo::proj::operation::GridDescription>>::_Vector_impl" = type { %"struct.std::_Vector_base<osgeo::proj::operation::GridDescription, std::allocator<osgeo::proj::operation::GridDescription>>::_Vector_impl_data" }
%"struct.std::_Vector_base<osgeo::proj::operation::GridDescription, std::allocator<osgeo::proj::operation::GridDescription>>::_Vector_impl_data" = type { ptr, ptr, ptr }
%"class.std::vector.3" = type { %"struct.std::_Vector_base.4" }
%"struct.std::_Vector_base.4" = type { %"struct.std::_Vector_base<PJCoordOperation, std::allocator<PJCoordOperation>>::_Vector_impl" }
%"struct.std::_Vector_base<PJCoordOperation, std::allocator<PJCoordOperation>>::_Vector_impl" = type { %"struct.std::_Vector_base<PJCoordOperation, std::allocator<PJCoordOperation>>::_Vector_impl_data" }
%"struct.std::_Vector_base<PJCoordOperation, std::allocator<PJCoordOperation>>::_Vector_impl_data" = type { ptr, ptr, ptr }
%"struct.(anonymous namespace)::pj_opaque_affine" = type { double, double, double, double, %"struct.(anonymous namespace)::pj_affine_coeffs", %"struct.(anonymous namespace)::pj_affine_coeffs" }
%"struct.(anonymous namespace)::pj_affine_coeffs" = type { double, double, double, double, double, double, double, double, double, double }
%struct.PJ_XYZT = type { double, double, double, double }
%union.PJ_COORD = type { [4 x double] }
%struct.PJ_XY = type { double, double }
%struct.PJ_LP = type { double, double }

; Function Attrs: mustprogress nounwind uwtable
define internal void @_ZL10reverse_4dR8PJ_COORDP8PJconsts(ptr noundef nonnull align 8 dereferenceable(32) %0, ptr noundef %1) #3 {
  %3 = alloca ptr, align 8
  %4 = alloca ptr, align 8
  %5 = alloca ptr, align 8
  %6 = alloca ptr, align 8
  %7 = alloca double, align 8
  %8 = alloca double, align 8
  %9 = alloca double, align 8
  store ptr %0, ptr %3, align 8, !tbaa !73
  store ptr %1, ptr %4, align 8, !tbaa !3
  call void @llvm.lifetime.start.p0(i64 8, ptr %5) #8
  %10 = load ptr, ptr %4, align 8, !tbaa !3
  %11 = getelementptr inbounds nuw %struct.PJconsts, ptr %10, i32 0, i32 11
  %12 = load ptr, ptr %11, align 8, !tbaa !43
  store ptr %12, ptr %5, align 8, !tbaa !41
  call void @llvm.lifetime.start.p0(i64 8, ptr %6) #8
  %13 = load ptr, ptr %5, align 8, !tbaa !41
  %14 = getelementptr inbounds nuw %"struct.(anonymous namespace)::pj_opaque_affine", ptr %13, i32 0, i32 5
  store ptr %14, ptr %6, align 8, !tbaa !75
  call void @llvm.lifetime.start.p0(i64 8, ptr %7) #8
  %15 = load ptr, ptr %3, align 8, !tbaa !73
  %16 = getelementptr inbounds nuw %struct.PJ_XYZT, ptr %15, i32 0, i32 0
  %17 = load double, ptr %16, align 8, !tbaa !52
  %18 = load ptr, ptr %5, align 8, !tbaa !41
  %19 = getelementptr inbounds nuw %"struct.(anonymous namespace)::pj_opaque_affine", ptr %18, i32 0, i32 0
  %20 = load double, ptr %19, align 8, !tbaa !53
  %21 = fsub double %17, %20
  store double %21, ptr %7, align 8, !tbaa !77
  call void @llvm.lifetime.start.p0(i64 8, ptr %8) #8
  %22 = load ptr, ptr %3, align 8, !tbaa !73
  %23 = getelementptr inbounds nuw %struct.PJ_XYZT, ptr %22, i32 0, i32 1
  %24 = load double, ptr %23, align 8, !tbaa !52
  %25 = load ptr, ptr %5, align 8, !tbaa !41
  %26 = getelementptr inbounds nuw %"struct.(anonymous namespace)::pj_opaque_affine", ptr %25, i32 0, i32 1
  %27 = load double, ptr %26, align 8, !tbaa !56
  %28 = fsub double %24, %27
  store double %28, ptr %8, align 8, !tbaa !77
  call void @llvm.lifetime.start.p0(i64 8, ptr %9) #8
  %29 = load ptr, ptr %3, align 8, !tbaa !73
  %30 = getelementptr inbounds nuw %struct.PJ_XYZT, ptr %29, i32 0, i32 2
  %31 = load double, ptr %30, align 8, !tbaa !52
  %32 = load ptr, ptr %5, align 8, !tbaa !41
  %33 = getelementptr inbounds nuw %"struct.(anonymous namespace)::pj_opaque_affine", ptr %32, i32 0, i32 2
  %34 = load double, ptr %33, align 8, !tbaa !57
  %35 = fsub double %31, %34
  store double %35, ptr %9, align 8, !tbaa !77
  %36 = load ptr, ptr %6, align 8, !tbaa !75
  %37 = getelementptr inbounds nuw %"struct.(anonymous namespace)::pj_affine_coeffs", ptr %36, i32 0, i32 0
  %38 = load double, ptr %37, align 8, !tbaa !78
  %39 = load double, ptr %7, align 8, !tbaa !77
  %40 = load ptr, ptr %6, align 8, !tbaa !75
  %41 = getelementptr inbounds nuw %"struct.(anonymous namespace)::pj_affine_coeffs", ptr %40, i32 0, i32 1
  %42 = load double, ptr %41, align 8, !tbaa !79
  %43 = load double, ptr %8, align 8, !tbaa !77
  %44 = fmul double %42, %43
  %45 = call double @llvm.fmuladd.f64(double %38, double %39, double %44)
  %46 = load ptr, ptr %6, align 8, !tbaa !75
  %47 = getelementptr inbounds nuw %"struct.(anonymous namespace)::pj_affine_coeffs", ptr %46, i32 0, i32 2
  %48 = load double, ptr %47, align 8, !tbaa !80
  %49 = load double, ptr %9, align 8, !tbaa !77
  %50 = call double @llvm.fmuladd.f64(double %48, double %49, double %45)
  %51 = load ptr, ptr %3, align 8, !tbaa !73
  %52 = getelementptr inbounds nuw %struct.PJ_XYZT, ptr %51, i32 0, i32 0
  store double %50, ptr %52, align 8, !tbaa !52
  %53 = load ptr, ptr %6, align 8, !tbaa !75
  %54 = getelementptr inbounds nuw %"struct.(anonymous namespace)::pj_affine_coeffs", ptr %53, i32 0, i32 3
  %55 = load double, ptr %54, align 8, !tbaa !81
  %56 = load double, ptr %7, align 8, !tbaa !77
  %57 = load ptr, ptr %6, align 8, !tbaa !75
  %58 = getelementptr inbounds nuw %"struct.(anonymous namespace)::pj_affine_coeffs", ptr %57, i32 0, i32 4
  %59 = load double, ptr %58, align 8, !tbaa !82
  %60 = load double, ptr %8, align 8, !tbaa !77
  %61 = fmul double %59, %60
  %62 = call double @llvm.fmuladd.f64(double %55, double %56, double %61)
  %63 = load ptr, ptr %6, align 8, !tbaa !75
  %64 = getelementptr inbounds nuw %"struct.(anonymous namespace)::pj_affine_coeffs", ptr %63, i32 0, i32 5
  %65 = load double, ptr %64, align 8, !tbaa !83
  %66 = load double, ptr %9, align 8, !tbaa !77
  %67 = call double @llvm.fmuladd.f64(double %65, double %66, double %62)
  %68 = load ptr, ptr %3, align 8, !tbaa !73
  %69 = getelementptr inbounds nuw %struct.PJ_XYZT, ptr %68, i32 0, i32 1
  store double %67, ptr %69, align 8, !tbaa !52
  %70 = load ptr, ptr %6, align 8, !tbaa !75
  %71 = getelementptr inbounds nuw %"struct.(anonymous namespace)::pj_affine_coeffs", ptr %70, i32 0, i32 6
  %72 = load double, ptr %71, align 8, !tbaa !84
  %73 = load double, ptr %7, align 8, !tbaa !77
  %74 = load ptr, ptr %6, align 8, !tbaa !75
  %75 = getelementptr inbounds nuw %"struct.(anonymous namespace)::pj_affine_coeffs", ptr %74, i32 0, i32 7
  %76 = load double, ptr %75, align 8, !tbaa !85
  %77 = load double, ptr %8, align 8, !tbaa !77
  %78 = fmul double %76, %77
  %79 = call double @llvm.fmuladd.f64(double %72, double %73, double %78)
  %80 = load ptr, ptr %6, align 8, !tbaa !75
  %81 = getelementptr inbounds nuw %"struct.(anonymous namespace)::pj_affine_coeffs", ptr %80, i32 0, i32 8
  %82 = load double, ptr %81, align 8, !tbaa !86
  %83 = load double, ptr %9, align 8, !tbaa !77
  %84 = call double @llvm.fmuladd.f64(double %82, double %83, double %79)
  %85 = load ptr, ptr %3, align 8, !tbaa !73
  %86 = getelementptr inbounds nuw %struct.PJ_XYZT, ptr %85, i32 0, i32 2
  store double %84, ptr %86, align 8, !tbaa !52
  %87 = load ptr, ptr %6, align 8, !tbaa !75
  %88 = getelementptr inbounds nuw %"struct.(anonymous namespace)::pj_affine_coeffs", ptr %87, i32 0, i32 9
  %89 = load double, ptr %88, align 8, !tbaa !87
  %90 = load ptr, ptr %3, align 8, !tbaa !73
  %91 = getelementptr inbounds nuw %struct.PJ_XYZT, ptr %90, i32 0, i32 3
  %92 = load double, ptr %91, align 8, !tbaa !52
  %93 = load ptr, ptr %5, align 8, !tbaa !41
  %94 = getelementptr inbounds nuw %"struct.(anonymous namespace)::pj_opaque_affine", ptr %93, i32 0, i32 3
  %95 = load double, ptr %94, align 8, !tbaa !58
  %96 = fsub double %92, %95
  %97 = fmul double %89, %96
  %98 = load ptr, ptr %3, align 8, !tbaa !73
  %99 = getelementptr inbounds nuw %struct.PJ_XYZT, ptr %98, i32 0, i32 3
  store double %97, ptr %99, align 8, !tbaa !52
  call void @llvm.lifetime.end.p0(i64 8, ptr %9) #8
  call void @llvm.lifetime.end.p0(i64 8, ptr %8) #8
  call void @llvm.lifetime.end.p0(i64 8, ptr %7) #8
  call void @llvm.lifetime.end.p0(i64 8, ptr %6) #8
  call void @llvm.lifetime.end.p0(i64 8, ptr %5) #8
  ret void
}

; Function Attrs: mustprogress nounwind uwtable
define internal { double, double } @_ZL10reverse_2d5PJ_XYP8PJconsts(double %0, double %1, ptr noundef %2) #3 {
  %4 = alloca %struct.PJ_LP, align 8
  %5 = alloca %struct.PJ_XY, align 8
  %6 = alloca ptr, align 8
  %7 = alloca %union.PJ_COORD, align 8
  %8 = getelementptr inbounds nuw { double, double }, ptr %5, i32 0, i32 0
  store double %0, ptr %8, align 8
  %9 = getelementptr inbounds nuw { double, double }, ptr %5, i32 0, i32 1
  store double %1, ptr %9, align 8
  store ptr %2, ptr %6, align 8, !tbaa !3
  call void @llvm.lifetime.start.p0(i64 32, ptr %7) #8
  call void @llvm.memset.p0.i64(ptr align 8 %7, i8 0, i64 32, i1 false)
  call void @llvm.memcpy.p0.p0.i64(ptr align 8 %7, ptr align 8 %5, i64 16, i1 false), !tbaa.struct !89
  %10 = load ptr, ptr %6, align 8, !tbaa !3
  call void @_ZL10reverse_4dR8PJ_COORDP8PJconsts(ptr noundef nonnull align 8 dereferenceable(32) %7, ptr noundef %10)
  call void @llvm.memcpy.p0.p0.i64(ptr align 8 %4, ptr align 8 %7, i64 16, i1 false), !tbaa.struct !89
  call void @llvm.lifetime.end.p0(i64 32, ptr %7) #8
  %11 = load { double, double }, ptr %4, align 8
  ret { double, double } %11
}