; Function Attrs: mustprogress nofree norecurse nosync nounwind willreturn memory(read, inaccessiblemem: none) uwtable
define internal { double, double } @_ZL10reverse_2d5PJ_XYP8PJconsts(double %0, double %1, ptr noundef readonly captures(none) %2) #3 {
  %4 = getelementptr inbounds nuw i8, ptr %2, i64 88
  %5 = load ptr, ptr %4, align 8, !tbaa !50
  %6 = getelementptr inbounds nuw i8, ptr %5, i64 112
  %7 = load double, ptr %5, align 8, !tbaa !59
  %8 = fsub double %0, %7
  %9 = getelementptr inbounds nuw i8, ptr %5, i64 8
  %10 = load double, ptr %9, align 8, !tbaa !60
  %11 = fsub double %1, %10
  %12 = getelementptr inbounds nuw i8, ptr %5, i64 16
  %13 = load double, ptr %12, align 8, !tbaa !61
  %14 = fsub double 0.000000e+00, %13
  %15 = load double, ptr %6, align 8, !tbaa !76
  %16 = getelementptr inbounds nuw i8, ptr %5, i64 120
  %17 = load double, ptr %16, align 8, !tbaa !77
  %18 = fmul double %11, %17
  %19 = tail call double @llvm.fmuladd.f64(double %15, double %8, double %18)
  %20 = getelementptr inbounds nuw i8, ptr %5, i64 128
  %21 = load double, ptr %20, align 8, !tbaa !78
  %22 = tail call double @llvm.fmuladd.f64(double %21, double %14, double %19)
  %23 = getelementptr inbounds nuw i8, ptr %5, i64 136
  %24 = load double, ptr %23, align 8, !tbaa !79
  %25 = getelementptr inbounds nuw i8, ptr %5, i64 144
  %26 = load double, ptr %25, align 8, !tbaa !80
  %27 = fmul double %11, %26
  %28 = tail call double @llvm.fmuladd.f64(double %24, double %8, double %27)
  %29 = getelementptr inbounds nuw i8, ptr %5, i64 152
  %30 = load double, ptr %29, align 8, !tbaa !81
  %31 = tail call double @llvm.fmuladd.f64(double %30, double %14, double %28)
  %.fca.0.insert = insertvalue { double, double } poison, double %22, 0
  %.fca.1.insert = insertvalue { double, double } %.fca.0.insert, double %31, 1
  ret { double, double } %.fca.1.insert
}